(lp0
(dp1
S'Office : '
p2
I2016
sS'Name : '
p3
S'Hilary Clinton'
p4
sS'Age : '
p5
I65
sa(dp6
g2
I2001
sg3
S'George W. Bush'
p7
sg5
I68
sa(dp8
g2
I1993
sg3
S'Bill Clinton'
p9
sg5
I68
sa(dp10
g2
I1989
sg3
S'George Bush'
p11
sg5
I90
sa.